; Function Attrs: mustprogress nofree norecurse nosync nounwind willreturn memory(argmem: readwrite) uwtable
define hidden void @_ZN5ceres8internal10CudaVectorC2EOS1_(ptr nocapture noundef nonnull writeonly align 8 dereferenceable(48) %0, ptr nocapture noundef nonnull align 8 dereferenceable(48) %1) unnamed_addr #4 align 2 {
  %3 = load i32, ptr %1, align 8
  store i32 %3, ptr %0, align 8
  %4 = getelementptr inbounds i8, ptr %0, i64 8
  %5 = getelementptr inbounds i8, ptr %1, i64 8
  %6 = load ptr, ptr %5, align 8
  store ptr %6, ptr %4, align 8
  %7 = getelementptr inbounds i8, ptr %0, i64 16
  %8 = getelementptr inbounds i8, ptr %1, i64 16
  %9 = load ptr, ptr %8, align 8
  store ptr %9, ptr %7, align 8
  %10 = getelementptr inbounds i8, ptr %0, i64 24
  %11 = getelementptr inbounds i8, ptr %1, i64 24
  %12 = load i64, ptr %11, align 8
  store i64 %12, ptr %10, align 8
  %13 = getelementptr inbounds i8, ptr %0, i64 32
  %14 = getelementptr inbounds i8, ptr %1, i64 32
  %15 = load ptr, ptr %14, align 8
  store ptr %15, ptr %13, align 8
  tail call void @llvm.memset.p0.i64(ptr noundef nonnull align 8 dereferenceable(16) %8, i8 0, i64 16, i1 false)
  %16 = getelementptr inbounds i8, ptr %0, i64 40
  %17 = getelementptr inbounds i8, ptr %1, i64 40
  %18 = load ptr, ptr %17, align 8
  store ptr %18, ptr %16, align 8
  store i32 0, ptr %1, align 8
  store ptr null, ptr %17, align 8
  ret void
}